target datalayout = "e-m:e-p270:32:32-p271:32:32-p272:64:64-i64:64-i128:128-f80:128-n8:16:32:64-S128"
target triple = "x86_64-pc-linux-gnu"

%class.MemoryFileTracker = type { %class.NativeCallStackStorage, %class.GrowableArrayCHeap.3 }
%class.NativeCallStackStorage = type { %class.ArrayWithFreeList, i32, ptr, %class.GrowableArrayCHeap.0, i8, %class.NativeCallStack }
%class.ArrayWithFreeList = type <{ %class.GrowableArrayCHeap, i32, [4 x i8] }>
%class.GrowableArrayCHeap = type { %class.GrowableArrayWithAllocator }
%class.GrowableArrayWithAllocator = type { %class.GrowableArrayView }
%class.GrowableArrayView = type { %class.GrowableArrayBase, ptr }
%class.GrowableArrayBase = type { i32, i32 }
%class.GrowableArrayCHeap.0 = type { %class.GrowableArrayWithAllocator.1 }
%class.GrowableArrayWithAllocator.1 = type { %class.GrowableArrayView.2 }
%class.GrowableArrayView.2 = type { %class.GrowableArrayBase, ptr }
%class.NativeCallStack = type { [4 x ptr] }
%class.GrowableArrayCHeap.3 = type { %class.GrowableArrayWithAllocator.4 }
%class.GrowableArrayWithAllocator.4 = type { %class.GrowableArrayView.5 }
%class.GrowableArrayView.5 = type { %class.GrowableArrayBase, ptr }
%"class.MemoryFileTracker::MemoryFile" = type { ptr, %class.VirtualMemorySnapshot, %class.VMATree }
%class.VirtualMemorySnapshot = type { [28 x %class.VirtualMemory] }
%class.VirtualMemory = type { i64, i64, i64 }
%class.VMATree = type { %class.Treap }
%class.Treap = type <{ %class.TreapCHeapAllocator, [7 x i8], ptr, i64, i32, [4 x i8] }>
%class.TreapCHeapAllocator = type { i8 }

@_ZN17MemoryFileTracker8Instance8_trackerE = hidden global ptr null, align 8

; Function Attrs: mustprogress nounwind uwtable
define linkonce_odr hidden noundef i32 @_ZN7NMTUtil13flag_to_indexE8MEMFLAGS(i8 noundef zeroext %0) #1 comdat align 2 {
  %2 = alloca i8, align 1
  store i8 %0, ptr %2, align 1
  %3 = load i8, ptr %2, align 1
  %4 = zext i8 %3 to i32
  ret i32 %4
}

; Function Attrs: mustprogress nounwind uwtable
define linkonce_odr hidden void @_ZN13VirtualMemory13commit_memoryEm(ptr noundef nonnull align 8 dereferenceable(24) %0, i64 noundef %1) #1 comdat align 2 {
  %3 = alloca ptr, align 8
  %4 = alloca i64, align 8
  store ptr %0, ptr %3, align 8
  store i64 %1, ptr %4, align 8
  %5 = load ptr, ptr %3, align 8
  %6 = load i64, ptr %4, align 8
  %7 = getelementptr inbounds %class.VirtualMemory, ptr %5, i32 0, i32 1
  %8 = load i64, ptr %7, align 8
  %9 = add i64 %8, %6
  store i64 %9, ptr %7, align 8
  %10 = getelementptr inbounds %class.VirtualMemory, ptr %5, i32 0, i32 1
  %11 = load i64, ptr %10, align 8
  call void @_ZN13VirtualMemory11update_peakEm(ptr noundef nonnull align 8 dereferenceable(24) %5, i64 noundef %11)
  ret void
}

; Function Attrs: mustprogress nounwind uwtable
define linkonce_odr hidden noundef i64 @_ZNK13VirtualMemory9committedEv(ptr noundef nonnull align 8 dereferenceable(24) %0) #1 comdat align 2 {
  %2 = alloca ptr, align 8
  store ptr %0, ptr %2, align 8
  %3 = load ptr, ptr %2, align 8
  %4 = getelementptr inbounds %class.VirtualMemory, ptr %3, i32 0, i32 1
  %5 = load i64, ptr %4, align 8
  ret i64 %5
}

; Function Attrs: mustprogress nounwind uwtable
define linkonce_odr hidden noundef ptr @_ZNK21VirtualMemorySnapshot7by_typeE8MEMFLAGS(ptr noundef nonnull align 8 dereferenceable(672) %0, i8 noundef zeroext %1) #1 comdat align 2 {
  %3 = alloca ptr, align 8
  %4 = alloca i8, align 1
  %5 = alloca i32, align 4
  store ptr %0, ptr %3, align 8
  store i8 %1, ptr %4, align 1
  %6 = load ptr, ptr %3, align 8
  %7 = load i8, ptr %4, align 1
  %8 = call noundef i32 @_ZN7NMTUtil13flag_to_indexE8MEMFLAGS(i8 noundef zeroext %7)
  store i32 %8, ptr %5, align 4
  %9 = getelementptr inbounds %class.VirtualMemorySnapshot, ptr %6, i32 0, i32 0
  %10 = load i32, ptr %5, align 4
  %11 = sext i32 %10 to i64
  %12 = getelementptr inbounds [28 x %class.VirtualMemory], ptr %9, i64 0, i64 %11
  ret ptr %12
}

; Function Attrs: mustprogress nounwind uwtable
define linkonce_odr hidden noundef ptr @_ZN21VirtualMemorySnapshot7by_typeE8MEMFLAGS(ptr noundef nonnull align 8 dereferenceable(672) %0, i8 noundef zeroext %1) #1 comdat align 2 {
  %3 = alloca ptr, align 8
  %4 = alloca i8, align 1
  %5 = alloca i32, align 4
  store ptr %0, ptr %3, align 8
  store i8 %1, ptr %4, align 1
  %6 = load ptr, ptr %3, align 8
  %7 = load i8, ptr %4, align 1
  %8 = call noundef i32 @_ZN7NMTUtil13flag_to_indexE8MEMFLAGS(i8 noundef zeroext %7)
  store i32 %8, ptr %5, align 4
  %9 = getelementptr inbounds %class.VirtualMemorySnapshot, ptr %6, i32 0, i32 0
  %10 = load i32, ptr %5, align 4
  %11 = sext i32 %10 to i64
  %12 = getelementptr inbounds [28 x %class.VirtualMemory], ptr %9, i64 0, i64 %11
  ret ptr %12
}

; Function Attrs: mustprogress nounwind uwtable
define linkonce_odr hidden noundef zeroext i8 @_ZN7NMTUtil13index_to_flagEi(i32 noundef %0) #1 comdat align 2 {
  %2 = alloca i32, align 4
  store i32 %0, ptr %2, align 4
  %3 = load i32, ptr %2, align 4
  %4 = trunc i32 %3 to i8
  ret i8 %4
}

; Function Attrs: mustprogress nounwind uwtable
define linkonce_odr hidden noundef nonnull align 8 dereferenceable(8) ptr @_ZNK17GrowableArrayViewIPN17MemoryFileTracker10MemoryFileEE2atEi(ptr noundef nonnull align 8 dereferenceable(16) %0, i32 noundef %1) #1 comdat align 2 {
  %3 = alloca ptr, align 8
  %4 = alloca i32, align 4
  store ptr %0, ptr %3, align 8
  store i32 %1, ptr %4, align 4
  %5 = load ptr, ptr %3, align 8
  %6 = getelementptr inbounds %class.GrowableArrayView.5, ptr %5, i32 0, i32 1
  %7 = load ptr, ptr %6, align 8
  %8 = load i32, ptr %4, align 4
  %9 = sext i32 %8 to i64
  %10 = getelementptr inbounds ptr, ptr %7, i64 %9
  ret ptr %10
}

; Function Attrs: mustprogress nounwind uwtable
define linkonce_odr hidden noundef i32 @_ZNK17GrowableArrayBase6lengthEv(ptr noundef nonnull align 4 dereferenceable(8) %0) #1 comdat align 2 {
  %2 = alloca ptr, align 8
  store ptr %0, ptr %2, align 8
  %3 = load ptr, ptr %2, align 8
  %4 = getelementptr inbounds %class.GrowableArrayBase, ptr %3, i32 0, i32 0
  %5 = load i32, ptr %4, align 4
  ret i32 %5
}

; Function Attrs: mustprogress nounwind uwtable
define hidden void @_ZNK17MemoryFileTracker16summary_snapshotEP21VirtualMemorySnapshot(ptr noundef nonnull align 8 dereferenceable(112) %0, ptr noundef %1) #1 align 2 {
  %3 = alloca ptr, align 8
  %4 = alloca ptr, align 8
  %5 = alloca i32, align 4
  %6 = alloca ptr, align 8
  %7 = alloca i32, align 4
  %8 = alloca ptr, align 8
  %9 = alloca ptr, align 8
  store ptr %0, ptr %3, align 8
  store ptr %1, ptr %4, align 8
  %10 = load ptr, ptr %3, align 8
  store i32 0, ptr %5, align 4
  br label %11

11:                                               ; preds = %41, %2
  %12 = load i32, ptr %5, align 4
  %13 = getelementptr inbounds %class.MemoryFileTracker, ptr %10, i32 0, i32 1
  %14 = call noundef i32 @_ZNK17GrowableArrayBase6lengthEv(ptr noundef nonnull align 4 dereferenceable(8) %13)
  %15 = icmp slt i32 %12, %14
  br i1 %15, label %16, label %44

16:                                               ; preds = %11
  %17 = getelementptr inbounds %class.MemoryFileTracker, ptr %10, i32 0, i32 1
  %18 = load i32, ptr %5, align 4
  %19 = call noundef nonnull align 8 dereferenceable(8) ptr @_ZNK17GrowableArrayViewIPN17MemoryFileTracker10MemoryFileEE2atEi(ptr noundef nonnull align 8 dereferenceable(16) %17, i32 noundef %18)
  %20 = load ptr, ptr %19, align 8
  store ptr %20, ptr %6, align 8
  store i32 0, ptr %7, align 4
  br label %21

21:                                               ; preds = %37, %16
  %22 = load i32, ptr %7, align 4
  %23 = icmp slt i32 %22, 28
  br i1 %23, label %24, label %40

24:                                               ; preds = %21
  %25 = load ptr, ptr %4, align 8
  %26 = load i32, ptr %7, align 4
  %27 = call noundef zeroext i8 @_ZN7NMTUtil13index_to_flagEi(i32 noundef %26)
  %28 = call noundef ptr @_ZN21VirtualMemorySnapshot7by_typeE8MEMFLAGS(ptr noundef nonnull align 8 dereferenceable(672) %25, i8 noundef zeroext %27)
  store ptr %28, ptr %8, align 8
  %29 = load ptr, ptr %6, align 8
  %30 = getelementptr inbounds %"class.MemoryFileTracker::MemoryFile", ptr %29, i32 0, i32 1
  %31 = load i32, ptr %7, align 4
  %32 = call noundef zeroext i8 @_ZN7NMTUtil13index_to_flagEi(i32 noundef %31)
  %33 = call noundef ptr @_ZNK21VirtualMemorySnapshot7by_typeE8MEMFLAGS(ptr noundef nonnull align 8 dereferenceable(672) %30, i8 noundef zeroext %32)
  store ptr %33, ptr %9, align 8
  %34 = load ptr, ptr %8, align 8
  %35 = load ptr, ptr %9, align 8
  %36 = call noundef i64 @_ZNK13VirtualMemory9committedEv(ptr noundef nonnull align 8 dereferenceable(24) %35)
  call void @_ZN13VirtualMemory13commit_memoryEm(ptr noundef nonnull align 8 dereferenceable(24) %34, i64 noundef %36)
  br label %37

37:                                               ; preds = %24
  %38 = load i32, ptr %7, align 4
  %39 = add nsw i32 %38, 1
  store i32 %39, ptr %7, align 4
  br label %21, !llvm.loop !10

40:                                               ; preds = %21
  br label %41

41:                                               ; preds = %40
  %42 = load i32, ptr %5, align 4
  %43 = add nsw i32 %42, 1
  store i32 %43, ptr %5, align 4
  br label %11, !llvm.loop !11

44:                                               ; preds = %11
  ret void
}

; Function Attrs: mustprogress nounwind uwtable
define hidden void @_ZN17MemoryFileTracker8Instance16summary_snapshotEP21VirtualMemorySnapshot(ptr noundef %0) #1 align 2 {
  %2 = alloca ptr, align 8
  store ptr %0, ptr %2, align 8
  %3 = load ptr, ptr @_ZN17MemoryFileTracker8Instance8_trackerE, align 8
  %4 = load ptr, ptr %2, align 8
  call void @_ZNK17MemoryFileTracker16summary_snapshotEP21VirtualMemorySnapshot(ptr noundef nonnull align 8 dereferenceable(112) %3, ptr noundef %4)
  ret void
}