; Function Attrs: mustprogress nounwind uwtable
define hidden void @_ZN17MemoryFileTracker8Instance16summary_snapshotEP21VirtualMemorySnapshot(ptr noundef %0) local_unnamed_addr #0 align 2 {
  %2 = load ptr, ptr @_ZN17MemoryFileTracker8Instance8_trackerE, align 8
  %3 = getelementptr inbounds i8, ptr %2, i64 96
  %4 = load i32, ptr %3, align 4
  %5 = icmp sgt i32 %4, 0
  br i1 %5, label %.lr.ph.i, label %_ZNK17MemoryFileTracker16summary_snapshotEP21VirtualMemorySnapshot.exit

.lr.ph.i:                                         ; preds = %1
  %6 = getelementptr inbounds i8, ptr %2, i64 104
  br label %7

7:                                                ; preds = %19, %.lr.ph.i
  %indvars.iv15.i = phi i64 [ 0, %.lr.ph.i ], [ %indvars.iv.next16.i, %19 ]
  %8 = load ptr, ptr %6, align 8
  %9 = getelementptr inbounds ptr, ptr %8, i64 %indvars.iv15.i
  %10 = load ptr, ptr %9, align 8
  %11 = getelementptr inbounds i8, ptr %10, i64 8
  br label %12

12:                                               ; preds = %12, %7
  %indvars.iv.i = phi i64 [ 0, %7 ], [ %indvars.iv.next.i, %12 ]
  %13 = getelementptr inbounds [28 x %class.VirtualMemory], ptr %0, i64 0, i64 %indvars.iv.i
  %14 = getelementptr inbounds [28 x %class.VirtualMemory], ptr %11, i64 0, i64 %indvars.iv.i, i32 1
  %15 = load i64, ptr %14, align 8
  %16 = getelementptr inbounds i8, ptr %13, i64 8
  %17 = load i64, ptr %16, align 8
  %18 = add i64 %17, %15
  store i64 %18, ptr %16, align 8
  tail call void @_ZN13VirtualMemory11update_peakEm(ptr noundef nonnull align 8 dereferenceable(24) %13, i64 noundef %18) #10
  %indvars.iv.next.i = add nuw nsw i64 %indvars.iv.i, 1
  %exitcond.not.i = icmp eq i64 %indvars.iv.next.i, 28
  br i1 %exitcond.not.i, label %19, label %12, !llvm.loop !15

19:                                               ; preds = %12
  %indvars.iv.next16.i = add nuw nsw i64 %indvars.iv15.i, 1
  %20 = load i32, ptr %3, align 4
  %21 = sext i32 %20 to i64
  %22 = icmp slt i64 %indvars.iv.next16.i, %21
  br i1 %22, label %7, label %_ZNK17MemoryFileTracker16summary_snapshotEP21VirtualMemorySnapshot.exit, !llvm.loop !16

_ZNK17MemoryFileTracker16summary_snapshotEP21VirtualMemorySnapshot.exit: ; preds = %19, %1
  ret void
}